; Function Attrs: mustprogress nofree norecurse nosync nounwind willreturn memory(readwrite, inaccessiblemem: none) uwtable
define void @stbte__undo_record_prop(ptr noundef captures(none) %0, i32 noundef %1, i32 noundef %2, i32 noundef %3, i16 noundef signext %4, i16 noundef signext %5) local_unnamed_addr #7 {
  %7 = load i32, ptr getelementptr inbounds nuw (i8, ptr @stbte__ui, i64 5292), align 4, !tbaa !76
  %.not = icmp eq i32 %7, 0
  br i1 %.not, label %67, label %8

8:                                                ; preds = %6
  %9 = getelementptr inbounds nuw i8, ptr %0, i64 801044
  %10 = load i32, ptr %9, align 4, !tbaa !43
  %11 = getelementptr inbounds nuw i8, ptr %0, i64 805160
  %12 = load ptr, ptr %11, align 8, !tbaa !27
  %13 = sext i32 %10 to i64
  %14 = getelementptr inbounds i16, ptr %12, i64 %13
  store i16 %5, ptr %14, align 2, !tbaa !21
  %15 = add nsw i32 %10, 1
  %16 = and i32 %15, 8388607
  %17 = getelementptr inbounds nuw i8, ptr %0, i64 801048
  %18 = load i32, ptr %17, align 8, !tbaa !41
  %19 = icmp slt i32 %18, 8388606
  %20 = zext i1 %19 to i32
  %21 = add nsw i32 %18, %20
  %22 = getelementptr inbounds nuw i8, ptr %0, i64 801052
  %23 = load i32, ptr %22, align 4, !tbaa !42
  %24 = icmp sgt i32 %23, 0
  %.neg.i = sext i1 %24 to i32
  %25 = add i32 %23, %.neg.i
  %26 = getelementptr inbounds nuw i8, ptr %0, i64 800876
  %27 = zext nneg i32 %16 to i64
  %28 = getelementptr inbounds nuw i16, ptr %12, i64 %27
  store i16 %4, ptr %28, align 2, !tbaa !21
  %29 = add i32 %10, 2
  %30 = and i32 %29, 8388607
  %31 = icmp slt i32 %21, 8388606
  %32 = zext i1 %31 to i32
  %33 = add nsw i32 %21, %32
  %34 = icmp sgt i32 %25, 0
  %.neg.i9 = sext i1 %34 to i32
  %35 = add i32 %25, %.neg.i9
  %36 = trunc i32 %1 to i16
  %37 = zext nneg i32 %30 to i64
  %38 = getelementptr inbounds nuw i16, ptr %12, i64 %37
  store i16 %36, ptr %38, align 2, !tbaa !21
  %39 = add i32 %10, 3
  %40 = and i32 %39, 8388607
  %41 = icmp slt i32 %33, 8388606
  %42 = zext i1 %41 to i32
  %43 = add nsw i32 %33, %42
  %44 = icmp sgt i32 %35, 0
  %.neg.i10 = sext i1 %44 to i32
  %45 = add i32 %35, %.neg.i10
  %46 = trunc i32 %2 to i16
  %47 = zext nneg i32 %40 to i64
  %48 = getelementptr inbounds nuw i16, ptr %12, i64 %47
  store i16 %46, ptr %48, align 2, !tbaa !21
  %49 = add i32 %10, 4
  %50 = and i32 %49, 8388607
  %51 = icmp slt i32 %43, 8388606
  %52 = zext i1 %51 to i32
  %53 = add nsw i32 %43, %52
  %54 = icmp sgt i32 %45, 0
  %.neg.i11 = sext i1 %54 to i32
  %55 = add i32 %45, %.neg.i11
  %56 = trunc i32 %3 to i16
  %57 = add i16 %56, 256
  %58 = zext nneg i32 %50 to i64
  %59 = getelementptr inbounds nuw i16, ptr %12, i64 %58
  store i16 %57, ptr %59, align 2, !tbaa !21
  %60 = add i32 %10, 5
  %61 = and i32 %60, 8388607
  store i32 %61, ptr %9, align 4, !tbaa !43
  %62 = icmp slt i32 %53, 8388606
  %63 = zext i1 %62 to i32
  %64 = add nsw i32 %53, %63
  store i32 %64, ptr %17, align 8, !tbaa !41
  %65 = icmp sgt i32 %55, 0
  %.neg.i12 = sext i1 %65 to i32
  %66 = add i32 %55, %.neg.i12
  store i32 %66, ptr %22, align 4, !tbaa !42
  store i8 0, ptr %26, align 4, !tbaa !45
  br label %67

67:                                               ; preds = %8, %6
  ret void
}